; Function Attrs: inlinehint mustprogress optsize uwtable
define internal noundef nonnull ptr @_ZZN8nanobind6detail11func_createILb0ELb1EZNS_11bind_vectorISt6vectorIS3_IZL38nanobind_init_test_stl_bind_vector_extRNS_7module_EE2ElSaIS6_EESaIS8_EELNS_9rv_policyE1EJEEENS_6class_IT_JEEENS_6handleEPKcDpOT1_EUlRKSA_E0_bJSM_EJLm0EEJNS_5scopeENS_4nameENS_9is_methodEA37_cEEEP7_objectOT1_PFT2_DpT3_ESt16integer_sequenceImJXspT4_EEEDpRKT5_ENUlPvPST_PhSB_PNS0_12cleanup_listEE_8__invokeES17_S18_S19_SB_S1B_(ptr readnone captures(none) %0, ptr noundef readonly captures(none) %1, ptr noundef readonly captures(none) %2, i32 %3, ptr noundef %4) #12 align 2 personality ptr @__gxx_personality_v0 {
  %6 = alloca %"struct.nanobind::detail::tuple.613", align 8
  call void @llvm.lifetime.start.p0(i64 8, ptr nonnull %6) #26
  %7 = load ptr, ptr %1, align 8, !tbaa !89
  %8 = load i8, ptr %2, align 1, !tbaa !34
  %9 = call noundef zeroext i1 @_ZN8nanobind6detail11nb_type_getEPKSt9type_infoP7_objecthPNS0_12cleanup_listEPPv(ptr noundef nonnull @_ZTISt6vectorIS_IZL38nanobind_init_test_stl_bind_vector_extRN8nanobind7module_EE2ElSaIS3_EESaIS5_EE, ptr noundef %7, i8 noundef zeroext %8, ptr noundef %4, ptr noundef nonnull align 8 dereferenceable(8) %6) #27
  br i1 %9, label %10, label %_ZZN8nanobind6detail11func_createILb0ELb1EZNS_11bind_vectorISt6vectorIS3_IZL38nanobind_init_test_stl_bind_vector_extRNS_7module_EE2ElSaIS6_EESaIS8_EELNS_9rv_policyE1EJEEENS_6class_IT_JEEENS_6handleEPKcDpOT1_EUlRKSA_E0_bJSM_EJLm0EEJNS_5scopeENS_4nameENS_9is_methodEA37_cEEEP7_objectOT1_PFT2_DpT3_ESt16integer_sequenceImJXspT4_EEEDpRKT5_ENKUlPvPST_PhSB_PNS0_12cleanup_listEE_clES17_S18_S19_SB_S1B_.exit

10:                                               ; preds = %5
  %11 = load ptr, ptr %6, align 8, !tbaa !329
  call void @_ZN8nanobind6detail27raise_next_overload_if_nullEPv(ptr noundef %11) #25
  %12 = load ptr, ptr %6, align 8, !tbaa !329
  %.val = load ptr, ptr %12, align 8, !tbaa !327
  %13 = getelementptr i8, ptr %12, i64 8
  %.val4 = load ptr, ptr %13, align 8, !tbaa !327
  %.not = icmp eq ptr %.val, %.val4
  %14 = select i1 %.not, ptr @_Py_FalseStruct, ptr @_Py_TrueStruct
  %15 = load i64, ptr %14, align 8, !tbaa !41
  %16 = add nsw i64 %15, 1
  store i64 %16, ptr %14, align 8, !tbaa !41
  br label %_ZZN8nanobind6detail11func_createILb0ELb1EZNS_11bind_vectorISt6vectorIS3_IZL38nanobind_init_test_stl_bind_vector_extRNS_7module_EE2ElSaIS6_EESaIS8_EELNS_9rv_policyE1EJEEENS_6class_IT_JEEENS_6handleEPKcDpOT1_EUlRKSA_E0_bJSM_EJLm0EEJNS_5scopeENS_4nameENS_9is_methodEA37_cEEEP7_objectOT1_PFT2_DpT3_ESt16integer_sequenceImJXspT4_EEEDpRKT5_ENKUlPvPST_PhSB_PNS0_12cleanup_listEE_clES17_S18_S19_SB_S1B_.exit

_ZZN8nanobind6detail11func_createILb0ELb1EZNS_11bind_vectorISt6vectorIS3_IZL38nanobind_init_test_stl_bind_vector_extRNS_7module_EE2ElSaIS6_EESaIS8_EELNS_9rv_policyE1EJEEENS_6class_IT_JEEENS_6handleEPKcDpOT1_EUlRKSA_E0_bJSM_EJLm0EEJNS_5scopeENS_4nameENS_9is_methodEA37_cEEEP7_objectOT1_PFT2_DpT3_ESt16integer_sequenceImJXspT4_EEEDpRKT5_ENKUlPvPST_PhSB_PNS0_12cleanup_listEE_clES17_S18_S19_SB_S1B_.exit: ; preds = %5, %10
  %.0.i = phi ptr [ %14, %10 ], [ inttoptr (i64 1 to ptr), %5 ]
  call void @llvm.lifetime.end.p0(i64 8, ptr nonnull %6) #26
  ret ptr %.0.i
}